	.file	"sen.cpp"
	.text
	.def	_ZL6printfPKcz;	.scl	3;	.type	32;	.endef
	.seh_proc	_ZL6printfPKcz
_ZL6printfPKcz:
.LFB556:
	pushq	%rbp
	.seh_pushreg	%rbp
	pushq	%rbx
	.seh_pushreg	%rbx
	subq	$56, %rsp
	.seh_stackalloc	56
	leaq	48(%rsp), %rbp
	.seh_setframe	%rbp, 48
	.seh_endprologue
	movq	%rcx, 32(%rbp)
	movq	%rdx, 40(%rbp)
	movq	%r8, 48(%rbp)
	movq	%r9, 56(%rbp)
	leaq	40(%rbp), %rax
	movq	%rax, -16(%rbp)
	movq	-16(%rbp), %rbx
	movl	$1, %ecx
	movq	__imp___acrt_iob_func(%rip), %rax
	call	*%rax
	movq	%rbx, %r8
	movq	32(%rbp), %rdx
	movq	%rax, %rcx
	call	__mingw_vfprintf
	movl	%eax, -4(%rbp)
	movl	-4(%rbp), %eax
	addq	$56, %rsp
	popq	%rbx
	popq	%rbp
	ret
	.seh_endproc
.lcomm _ZStL8__ioinit,1,1
	.globl	_Z7stop_atPcPKc
	.def	_Z7stop_atPcPKc;	.scl	2;	.type	32;	.endef
	.seh_proc	_Z7stop_atPcPKc
_Z7stop_atPcPKc:
.LFB2363:
	pushq	%rbp
	.seh_pushreg	%rbp
	movq	%rsp, %rbp
	.seh_setframe	%rbp, 0
	subq	$64, %rsp
	.seh_stackalloc	64
	.seh_endprologue
	movq	%rcx, 16(%rbp)
	movq	%rdx, 24(%rbp)
	movq	$0, -8(%rbp)
	movq	24(%rbp), %rax
	movq	%rax, %rcx
	call	strlen
	movl	%eax, -16(%rbp)
	movl	$0, -20(%rbp)
	jmp	.L4
.L9:
	movl	$0, -12(%rbp)
	jmp	.L5
.L8:
	movq	16(%rbp), %rdx
	movq	-8(%rbp), %rax
	addq	%rdx, %rax
	movzbl	(%rax), %edx
	movl	-12(%rbp), %eax
	movslq	%eax, %rcx
	movq	24(%rbp), %rax
	addq	%rcx, %rax
	movzbl	(%rax), %eax
	cmpb	%al, %dl
	jne	.L6
	movq	-8(%rbp), %rax
	jmp	.L7
.L6:
	addl	$1, -12(%rbp)
.L5:
	movl	-12(%rbp), %eax
	cmpl	-16(%rbp), %eax
	jl	.L8
	addq	$1, -8(%rbp)
.L4:
	movq	16(%rbp), %rdx
	movq	-8(%rbp), %rax
	addq	%rdx, %rax
	movzbl	(%rax), %eax
	testb	%al, %al
	jne	.L9
	movq	-8(%rbp), %rax
.L7:
	addq	$64, %rsp
	popq	%rbp
	ret
	.seh_endproc
	.globl	_Z7skip_atPcPKc
	.def	_Z7skip_atPcPKc;	.scl	2;	.type	32;	.endef
	.seh_proc	_Z7skip_atPcPKc
_Z7skip_atPcPKc:
.LFB2364:
	pushq	%rbp
	.seh_pushreg	%rbp
	movq	%rsp, %rbp
	.seh_setframe	%rbp, 0
	subq	$48, %rsp
	.seh_stackalloc	48
	.seh_endprologue
	movq	%rcx, 16(%rbp)
	movq	%rdx, 24(%rbp)
	movl	$0, -4(%rbp)
	movq	24(%rbp), %rax
	movq	%rax, %rcx
	call	strlen
	movl	%eax, -12(%rbp)
	jmp	.L11
.L17:
	movl	$0, -8(%rbp)
	jmp	.L12
.L15:
	movl	-4(%rbp), %eax
	movslq	%eax, %rdx
	movq	16(%rbp), %rax
	addq	%rdx, %rax
	movzbl	(%rax), %edx
	movl	-8(%rbp), %eax
	movslq	%eax, %rcx
	movq	24(%rbp), %rax
	addq	%rcx, %rax
	movzbl	(%rax), %eax
	cmpb	%al, %dl
	je	.L19
	addl	$1, -8(%rbp)
.L12:
	movl	-8(%rbp), %eax
	cmpl	-12(%rbp), %eax
	jl	.L15
	movl	-4(%rbp), %eax
	movslq	%eax, %rdx
	movq	16(%rbp), %rax
	addq	%rdx, %rax
	jmp	.L16
.L19:
	nop
.L14:
	addl	$1, -4(%rbp)
.L11:
	movl	-4(%rbp), %eax
	movslq	%eax, %rdx
	movq	16(%rbp), %rax
	addq	%rdx, %rax
	movzbl	(%rax), %eax
	testb	%al, %al
	jne	.L17
	movq	16(%rbp), %rax
.L16:
	addq	$48, %rsp
	popq	%rbp
	ret
	.seh_endproc
	.globl	_Z8name_lenPc
	.def	_Z8name_lenPc;	.scl	2;	.type	32;	.endef
	.seh_proc	_Z8name_lenPc
_Z8name_lenPc:
.LFB2365:
	pushq	%rbp
	.seh_pushreg	%rbp
	movq	%rsp, %rbp
	.seh_setframe	%rbp, 0
	subq	$16, %rsp
	.seh_stackalloc	16
	.seh_endprologue
	movq	%rcx, 16(%rbp)
	movl	$0, -4(%rbp)
	movl	-4(%rbp), %eax
	movslq	%eax, %rdx
	movq	16(%rbp), %rax
	addq	%rdx, %rax
	movzbl	(%rax), %eax
	cmpb	$47, %al
	jle	.L21
	movl	-4(%rbp), %eax
	movslq	%eax, %rdx
	movq	16(%rbp), %rax
	addq	%rdx, %rax
	movzbl	(%rax), %eax
	cmpb	$57, %al
	jg	.L21
	movl	$0, %eax
	jmp	.L22
.L21:
	addl	$1, -4(%rbp)
	jmp	.L23
.L28:
	movl	-4(%rbp), %eax
	movslq	%eax, %rdx
	movq	16(%rbp), %rax
	addq	%rdx, %rax
	movzbl	(%rax), %eax
	cmpb	$47, %al
	jle	.L24
	movl	-4(%rbp), %eax
	movslq	%eax, %rdx
	movq	16(%rbp), %rax
	addq	%rdx, %rax
	movzbl	(%rax), %eax
	cmpb	$57, %al
	jg	.L24
	jmp	.L23
.L24:
	movl	-4(%rbp), %eax
	movslq	%eax, %rdx
	movq	16(%rbp), %rax
	addq	%rdx, %rax
	movzbl	(%rax), %eax
	cmpb	$64, %al
	jle	.L25
	movl	-4(%rbp), %eax
	movslq	%eax, %rdx
	movq	16(%rbp), %rax
	addq	%rdx, %rax
	movzbl	(%rax), %eax
	cmpb	$90, %al
	jg	.L25
	jmp	.L23
.L25:
	movl	-4(%rbp), %eax
	movslq	%eax, %rdx
	movq	16(%rbp), %rax
	addq	%rdx, %rax
	movzbl	(%rax), %eax
	cmpb	$96, %al
	jle	.L26
	movl	-4(%rbp), %eax
	movslq	%eax, %rdx
	movq	16(%rbp), %rax
	addq	%rdx, %rax
	movzbl	(%rax), %eax
	cmpb	$122, %al
	jg	.L26
	jmp	.L23
.L26:
	movl	-4(%rbp), %eax
	movslq	%eax, %rdx
	movq	16(%rbp), %rax
	addq	%rdx, %rax
	movzbl	(%rax), %eax
	cmpb	$95, %al
	jne	.L27
	jmp	.L23
.L27:
	movl	-4(%rbp), %eax
	cltq
	jmp	.L22
.L23:
	movq	16(%rbp), %rcx
	movl	-4(%rbp), %eax
	leal	1(%rax), %edx
	movl	%edx, -4(%rbp)
	cltq
	addq	%rcx, %rax
	movzbl	(%rax), %eax
	testb	%al, %al
	setne	%al
	testb	%al, %al
	jne	.L28
	movl	$0, %eax
.L22:
	addq	$16, %rsp
	popq	%rbp
	ret
	.seh_endproc
	.section .rdata,"dr"
.LC0:
	.ascii "%.*s, %d\0"
	.text
	.globl	_Z9print_lenPcy
	.def	_Z9print_lenPcy;	.scl	2;	.type	32;	.endef
	.seh_proc	_Z9print_lenPcy
_Z9print_lenPcy:
.LFB2366:
	pushq	%rbp
	.seh_pushreg	%rbp
	movq	%rsp, %rbp
	.seh_setframe	%rbp, 0
	subq	$144, %rsp
	.seh_stackalloc	144
	.seh_endprologue
	movq	%rcx, 16(%rbp)
	movq	%rdx, 24(%rbp)
	movq	24(%rbp), %rdx
	movq	24(%rbp), %rax
	movq	%rdx, %r9
	movq	16(%rbp), %r8
	movq	%rax, %rdx
	leaq	.LC0(%rip), %rax
	movq	%rax, %rcx
	call	_ZL6printfPKcz
	nop
	addq	$144, %rsp
	popq	%rbp
	ret
	.seh_endproc
	.globl	_Z8sen_compPKcS0_
	.def	_Z8sen_compPKcS0_;	.scl	2;	.type	32;	.endef
	.seh_proc	_Z8sen_compPKcS0_
_Z8sen_compPKcS0_:
.LFB2367:
	pushq	%rbp
	.seh_pushreg	%rbp
	movq	%rsp, %rbp
	.seh_setframe	%rbp, 0
	subq	$48, %rsp
	.seh_stackalloc	48
	.seh_endprologue
	movq	%rcx, 16(%rbp)
	movq	%rdx, 24(%rbp)
	movq	24(%rbp), %rax
	movq	%rax, %rcx
	call	strlen
	movl	%eax, -12(%rbp)
	movq	$0, -8(%rbp)
	jmp	.L31
.L34:
	movq	24(%rbp), %rdx
	movq	-8(%rbp), %rax
	addq	%rdx, %rax
	movzbl	(%rax), %edx
	movq	16(%rbp), %rcx
	movq	-8(%rbp), %rax
	addq	%rcx, %rax
	movzbl	(%rax), %eax
	cmpb	%al, %dl
	je	.L32
	movl	$0, %eax
	jmp	.L33
.L32:
	addq	$1, -8(%rbp)
.L31:
	movl	-12(%rbp), %eax
	cltq
	cmpq	%rax, -8(%rbp)
	jb	.L34
	movl	$1, %eax
.L33:
	addq	$48, %rsp
	popq	%rbp
	ret
	.seh_endproc
	.section .rdata,"dr"
.LC1:
	.ascii "Failed mem alloc\0"
	.text
	.globl	_Z7strndupPKcy
	.def	_Z7strndupPKcy;	.scl	2;	.type	32;	.endef
	.seh_proc	_Z7strndupPKcy
_Z7strndupPKcy:
.LFB2368:
	pushq	%rbp
	.seh_pushreg	%rbp
	movq	%rsp, %rbp
	.seh_setframe	%rbp, 0
	subq	$48, %rsp
	.seh_stackalloc	48
	.seh_endprologue
	movq	%rcx, 16(%rbp)
	movq	%rdx, 24(%rbp)
	movq	24(%rbp), %rax
	addq	$1, %rax
	movq	%rax, %rcx
	call	malloc
	movq	%rax, -8(%rbp)
	cmpq	$0, -8(%rbp)
	jne	.L36
	leaq	.LC1(%rip), %rax
	movq	%rax, %rdx
	movq	.refptr._ZSt4cerr(%rip), %rax
	movq	%rax, %rcx
	call	_ZStlsISt11char_traitsIcEERSt13basic_ostreamIcT_ES5_PKc
	movq	%rax, %rcx
	movq	.refptr._ZSt4endlIcSt11char_traitsIcEERSt13basic_ostreamIT_T0_ES6_(%rip), %rax
	movq	%rax, %rdx
	call	_ZNSolsEPFRSoS_E
	movl	$-1, %ecx
	call	exit
.L36:
	movq	24(%rbp), %rdx
	movq	-8(%rbp), %rax
	movq	%rdx, %r8
	movq	16(%rbp), %rdx
	movq	%rax, %rcx
	call	memcpy
	movq	%rax, -8(%rbp)
	movq	-8(%rbp), %rdx
	movq	24(%rbp), %rax
	addq	%rdx, %rax
	movb	$0, (%rax)
	movq	-8(%rbp), %rax
	addq	$48, %rsp
	popq	%rbp
	ret
	.seh_endproc
	.def	__tcf_0;	.scl	3;	.type	32;	.endef
	.seh_proc	__tcf_0
__tcf_0:
.LFB2890:
	pushq	%rbp
	.seh_pushreg	%rbp
	movq	%rsp, %rbp
	.seh_setframe	%rbp, 0
	subq	$32, %rsp
	.seh_stackalloc	32
	.seh_endprologue
	leaq	_ZStL8__ioinit(%rip), %rax
	movq	%rax, %rcx
	call	_ZNSt8ios_base4InitD1Ev
	nop
	addq	$32, %rsp
	popq	%rbp
	ret
	.seh_endproc
	.def	_Z41__static_initialization_and_destruction_0ii;	.scl	3;	.type	32;	.endef
	.seh_proc	_Z41__static_initialization_and_destruction_0ii
_Z41__static_initialization_and_destruction_0ii:
.LFB2889:
	pushq	%rbp
	.seh_pushreg	%rbp
	movq	%rsp, %rbp
	.seh_setframe	%rbp, 0
	subq	$32, %rsp
	.seh_stackalloc	32
	.seh_endprologue
	movl	%ecx, 16(%rbp)
	movl	%edx, 24(%rbp)
	cmpl	$1, 16(%rbp)
	jne	.L41
	cmpl	$65535, 24(%rbp)
	jne	.L41
	leaq	_ZStL8__ioinit(%rip), %rax
	movq	%rax, %rcx
	call	_ZNSt8ios_base4InitC1Ev
	leaq	__tcf_0(%rip), %rax
	movq	%rax, %rcx
	call	atexit
.L41:
	nop
	addq	$32, %rsp
	popq	%rbp
	ret
	.seh_endproc
	.def	_GLOBAL__sub_I__Z7stop_atPcPKc;	.scl	3;	.type	32;	.endef
	.seh_proc	_GLOBAL__sub_I__Z7stop_atPcPKc
_GLOBAL__sub_I__Z7stop_atPcPKc:
.LFB2891:
	pushq	%rbp
	.seh_pushreg	%rbp
	movq	%rsp, %rbp
	.seh_setframe	%rbp, 0
	subq	$32, %rsp
	.seh_stackalloc	32
	.seh_endprologue
	movl	$65535, %edx
	movl	$1, %ecx
	call	_Z41__static_initialization_and_destruction_0ii
	nop
	addq	$32, %rsp
	popq	%rbp
	ret
	.seh_endproc
	.section	.ctors,"w"
	.align 8
	.quad	_GLOBAL__sub_I__Z7stop_atPcPKc
	.ident	"GCC: (Rev1, Built by MSYS2 project) 11.2.0"
	.def	__mingw_vfprintf;	.scl	2;	.type	32;	.endef
	.def	strlen;	.scl	2;	.type	32;	.endef
	.def	malloc;	.scl	2;	.type	32;	.endef
	.def	_ZStlsISt11char_traitsIcEERSt13basic_ostreamIcT_ES5_PKc;	.scl	2;	.type	32;	.endef
	.def	_ZNSolsEPFRSoS_E;	.scl	2;	.type	32;	.endef
	.def	exit;	.scl	2;	.type	32;	.endef
	.def	memcpy;	.scl	2;	.type	32;	.endef
	.def	_ZNSt8ios_base4InitD1Ev;	.scl	2;	.type	32;	.endef
	.def	_ZNSt8ios_base4InitC1Ev;	.scl	2;	.type	32;	.endef
	.def	atexit;	.scl	2;	.type	32;	.endef
	.section	.rdata$.refptr._ZSt4endlIcSt11char_traitsIcEERSt13basic_ostreamIT_T0_ES6_, "dr"
	.globl	.refptr._ZSt4endlIcSt11char_traitsIcEERSt13basic_ostreamIT_T0_ES6_
	.linkonce	discard
.refptr._ZSt4endlIcSt11char_traitsIcEERSt13basic_ostreamIT_T0_ES6_:
	.quad	_ZSt4endlIcSt11char_traitsIcEERSt13basic_ostreamIT_T0_ES6_
	.section	.rdata$.refptr._ZSt4cerr, "dr"
	.globl	.refptr._ZSt4cerr
	.linkonce	discard
.refptr._ZSt4cerr:
	.quad	_ZSt4cerr
